target datalayout = "e-m:e-p270:32:32-p271:32:32-p272:64:64-i64:64-i128:128-f80:128-n8:16:32:64-S128"
target triple = "x86_64-pc-linux-gnu"

; Function Attrs: inlinehint nounwind uwtable
define internal zeroext i1 @mi_mul_overflow(i64 noundef %0, i64 noundef %1, ptr noundef %2) #0 {
  %4 = alloca i64, align 8
  %5 = alloca i64, align 8
  %6 = alloca ptr, align 8
  store i64 %0, ptr %4, align 8, !tbaa !3
  store i64 %1, ptr %5, align 8, !tbaa !3
  store ptr %2, ptr %6, align 8, !tbaa !40
  %7 = load i64, ptr %4, align 8, !tbaa !3
  %8 = load i64, ptr %5, align 8, !tbaa !3
  %9 = load ptr, ptr %6, align 8, !tbaa !40
  %10 = call { i64, i1 } @llvm.umul.with.overflow.i64(i64 %7, i64 %8)
  %11 = extractvalue { i64, i1 } %10, 1
  %12 = extractvalue { i64, i1 } %10, 0
  store i64 %12, ptr %9, align 8
  ret i1 %11
}

; Function Attrs: nounwind uwtable
define hidden ptr @mi_heap_realloc(ptr noundef %0, ptr noundef %1, i64 noundef %2) #3 {
  %4 = alloca ptr, align 8
  %5 = alloca ptr, align 8
  %6 = alloca i64, align 8
  store ptr %0, ptr %4, align 8, !tbaa !35
  store ptr %1, ptr %5, align 8, !tbaa !7
  store i64 %2, ptr %6, align 8, !tbaa !3
  %7 = load ptr, ptr %4, align 8, !tbaa !35
  %8 = load ptr, ptr %5, align 8, !tbaa !7
  %9 = load i64, ptr %6, align 8, !tbaa !3
  %10 = call ptr @_mi_heap_realloc_zero(ptr noundef %7, ptr noundef %8, i64 noundef %9, i1 noundef zeroext false) #14
  ret ptr %10
}

; Function Attrs: inlinehint nounwind uwtable
define internal zeroext i1 @mi_count_size_overflow(i64 noundef %0, i64 noundef %1, ptr noundef %2) #0 {
  %4 = alloca i1, align 1
  %5 = alloca i64, align 8
  %6 = alloca i64, align 8
  %7 = alloca ptr, align 8
  store i64 %0, ptr %5, align 8, !tbaa !3
  store i64 %1, ptr %6, align 8, !tbaa !3
  store ptr %2, ptr %7, align 8, !tbaa !40
  %8 = load i64, ptr %5, align 8, !tbaa !3
  %9 = icmp eq i64 %8, 1
  br i1 %9, label %10, label %13

10:                                               ; preds = %3
  %11 = load i64, ptr %6, align 8, !tbaa !3
  %12 = load ptr, ptr %7, align 8, !tbaa !40
  store i64 %11, ptr %12, align 8, !tbaa !3
  store i1 false, ptr %4, align 1
  br label %27

13:                                               ; preds = %3
  %14 = load i64, ptr %5, align 8, !tbaa !3
  %15 = load i64, ptr %6, align 8, !tbaa !3
  %16 = load ptr, ptr %7, align 8, !tbaa !40
  %17 = call zeroext i1 @mi_mul_overflow(i64 noundef %14, i64 noundef %15, ptr noundef %16) #14
  %18 = xor i1 %17, true
  %19 = xor i1 %18, true
  %20 = zext i1 %19 to i32
  %21 = sext i32 %20 to i64
  %22 = call i64 @llvm.expect.i64(i64 %21, i64 0)
  %23 = icmp ne i64 %22, 0
  br i1 %23, label %24, label %26

24:                                               ; preds = %13
  %25 = load ptr, ptr %7, align 8, !tbaa !40
  store i64 -1, ptr %25, align 8, !tbaa !3
  store i1 true, ptr %4, align 1
  br label %27

26:                                               ; preds = %13
  store i1 false, ptr %4, align 1
  br label %27

27:                                               ; preds = %26, %24, %10
  %28 = load i1, ptr %4, align 1
  ret i1 %28
}

; Function Attrs: nounwind uwtable
define hidden ptr @mi_heap_reallocn(ptr noundef %0, ptr noundef %1, i64 noundef %2, i64 noundef %3) #3 {
  %5 = alloca ptr, align 8
  %6 = alloca ptr, align 8
  %7 = alloca ptr, align 8
  %8 = alloca i64, align 8
  %9 = alloca i64, align 8
  %10 = alloca i64, align 8
  %11 = alloca i32, align 4
  store ptr %0, ptr %6, align 8, !tbaa !35
  store ptr %1, ptr %7, align 8, !tbaa !7
  store i64 %2, ptr %8, align 8, !tbaa !3
  store i64 %3, ptr %9, align 8, !tbaa !3
  call void @llvm.lifetime.start.p0(i64 8, ptr %10) #15
  %12 = load i64, ptr %8, align 8, !tbaa !3
  %13 = load i64, ptr %9, align 8, !tbaa !3
  %14 = call zeroext i1 @mi_count_size_overflow(i64 noundef %12, i64 noundef %13, ptr noundef %10) #14
  br i1 %14, label %15, label %16

15:                                               ; preds = %4
  store ptr null, ptr %5, align 8
  store i32 1, ptr %11, align 4
  br label %21

16:                                               ; preds = %4
  %17 = load ptr, ptr %6, align 8, !tbaa !35
  %18 = load ptr, ptr %7, align 8, !tbaa !7
  %19 = load i64, ptr %10, align 8, !tbaa !3
  %20 = call ptr @mi_heap_realloc(ptr noundef %17, ptr noundef %18, i64 noundef %19) #14
  store ptr %20, ptr %5, align 8
  store i32 1, ptr %11, align 4
  br label %21

21:                                               ; preds = %16, %15
  call void @llvm.lifetime.end.p0(i64 8, ptr %10) #15
  %22 = load ptr, ptr %5, align 8
  ret ptr %22
}